target datalayout = "e-m:e-p270:32:32-p271:32:32-p272:64:64-i64:64-i128:128-f80:128-n8:16:32:64-S128"
target triple = "x86_64-pc-linux-gnu"

%union.pthread_mutex_t = type { %struct.__pthread_mutex_s }
%struct.__pthread_mutex_s = type { i32, i32, i32, i32, i32, i16, i16, %struct.__pthread_internal_list }
%struct.__pthread_internal_list = type { ptr, ptr }
%struct.wolfSSL_RefWithMutex = type { %union.pthread_mutex_t, i32 }
%struct.WOLFSSL_CERT_MANAGER = type { [11 x ptr], ptr, ptr, ptr, ptr, ptr, ptr, ptr, ptr, ptr, ptr, ptr, ptr, %union.pthread_mutex_t, i8, i16, i16, %struct.wolfSSL_RefWithMutex }
%struct.WOLFSSL_CTX = type <{ ptr, %struct.wolfSSL_RefWithMutex, i32, [4 x i8], %struct.WOLFSSL_BUFFER_INFO, %struct.WOLFSSL_BUFFER_INFO, ptr, ptr, i32, [4 x i8], ptr, i8, i8, [2 x i8], i32, i32, [4 x i8], ptr, ptr, ptr, i8, i16, i8, i8, i8, i16, i16, i16, i16, [2 x i8], i64, ptr, ptr, ptr, ptr, i32, i32, i16, [2 x i8], i32, [10 x i16], i8, [3 x i8], ptr, ptr, i32, [4 x i8], ptr, i8, [7 x i8] }>
%struct.WOLFSSL_BUFFER_INFO = type { ptr, i32 }

; Function Attrs: nounwind uwtable
define i32 @wolfSSL_CTX_SetMinEccKey_Sz(ptr noundef %0, i16 noundef signext %1) #0 {
  %3 = alloca i32, align 4
  %4 = alloca ptr, align 8
  %5 = alloca i16, align 2
  store ptr %0, ptr %4, align 8, !tbaa !24
  store i16 %1, ptr %5, align 2, !tbaa !94
  br label %6

6:                                                ; preds = %2
  br label %7

7:                                                ; preds = %6
  %8 = load ptr, ptr %4, align 8, !tbaa !24
  %9 = icmp eq ptr %8, null
  br i1 %9, label %19, label %10

10:                                               ; preds = %7
  %11 = load i16, ptr %5, align 2, !tbaa !94
  %12 = sext i16 %11 to i32
  %13 = icmp slt i32 %12, 0
  br i1 %13, label %19, label %14

14:                                               ; preds = %10
  %15 = load i16, ptr %5, align 2, !tbaa !94
  %16 = sext i16 %15 to i32
  %17 = srem i32 %16, 8
  %18 = icmp ne i32 %17, 0
  br i1 %18, label %19, label %22

19:                                               ; preds = %14, %10, %7
  br label %20

20:                                               ; preds = %19
  br label %21

21:                                               ; preds = %20
  store i32 -173, ptr %3, align 4
  br label %37

22:                                               ; preds = %14
  %23 = load i16, ptr %5, align 2, !tbaa !94
  %24 = sext i16 %23 to i32
  %25 = sdiv i32 %24, 8
  %26 = trunc i32 %25 to i16
  %27 = load ptr, ptr %4, align 8, !tbaa !24
  %28 = getelementptr inbounds nuw %struct.WOLFSSL_CTX, ptr %27, i32 0, i32 28
  store i16 %26, ptr %28, align 4, !tbaa !170
  %29 = load i16, ptr %5, align 2, !tbaa !94
  %30 = sext i16 %29 to i32
  %31 = sdiv i32 %30, 8
  %32 = trunc i32 %31 to i16
  %33 = load ptr, ptr %4, align 8, !tbaa !24
  %34 = getelementptr inbounds nuw %struct.WOLFSSL_CTX, ptr %33, i32 0, i32 17
  %35 = load ptr, ptr %34, align 8, !tbaa !26
  %36 = getelementptr inbounds nuw %struct.WOLFSSL_CERT_MANAGER, ptr %35, i32 0, i32 16
  store i16 %32, ptr %36, align 4, !tbaa !18
  store i32 1, ptr %3, align 4
  br label %37

37:                                               ; preds = %22, %21
  %38 = load i32, ptr %3, align 4
  ret i32 %38
}