; Function Attrs: mustprogress nofree norecurse nosync nounwind willreturn memory(write, argmem: readwrite, inaccessiblemem: none) uwtable
define range(i32 -173, 2) i32 @wolfSSL_CTX_SetMinEccKey_Sz(ptr noundef captures(address_is_null) %0, i16 noundef signext %1) local_unnamed_addr #16 {
  %3 = icmp ne ptr %0, null
  %4 = and i16 %1, -32761
  %5 = icmp eq i16 %4, 0
  %or.cond11 = and i1 %3, %5
  br i1 %or.cond11, label %6, label %12

6:                                                ; preds = %2
  %7 = lshr exact i16 %1, 3
  %8 = getelementptr inbounds nuw i8, ptr %0, i64 180
  store i16 %7, ptr %8, align 4, !tbaa !148
  %9 = getelementptr inbounds nuw i8, ptr %0, i64 144
  %10 = load ptr, ptr %9, align 8, !tbaa !26
  %11 = getelementptr inbounds nuw i8, ptr %10, i64 228
  store i16 %7, ptr %11, align 4, !tbaa !15
  br label %12

12:                                               ; preds = %2, %6
  %.0 = phi i32 [ 1, %6 ], [ -173, %2 ]
  ret i32 %.0
}